; Function Attrs: mustprogress nounwind uwtable
define hidden noundef zeroext i1 @_ZNK5clang6driver10toolchains5Linux30IsAArch64OutlineAtomicsDefaultERKN4llvm3opt7ArgListE(ptr noundef nonnull align 8 dereferenceable(4512) %0, ptr noundef nonnull align 8 dereferenceable(176) %1) unnamed_addr #0 align 2 {
  %3 = load ptr, ptr %0, align 8
  %4 = getelementptr inbounds nuw i8, ptr %3, i64 576
  %5 = load ptr, ptr %4, align 8
  %6 = tail call noundef i32 %5(ptr noundef nonnull align 8 dereferenceable(2168) %0, ptr noundef nonnull align 8 dereferenceable(176) %1) #17
  %7 = icmp eq i32 %6, 0
  br i1 %7, label %11, label %8

8:                                                ; preds = %2
  %9 = getelementptr inbounds nuw i8, ptr %0, i64 2696
  %10 = tail call noundef zeroext i1 @_ZNK5clang6driver10toolchains11Generic_GCC10GCCVersion11isOlderThanEiiiN4llvm9StringRefE(ptr noundef nonnull align 8 dereferenceable(144) %9, i32 noundef 9, i32 noundef 3, i32 noundef 1, ptr null, i64 0) #17
  %not. = xor i1 %10, true
  br label %11

11:                                               ; preds = %8, %2
  %.0 = phi i1 [ true, %2 ], [ %not., %8 ]
  ret i1 %.0
}